target datalayout = "e-m:e-p270:32:32-p271:32:32-p272:64:64-i64:64-i128:128-f80:128-n8:16:32:64-S128"
target triple = "x86_64-pc-linux-gnu"

@.str.14 = private unnamed_addr constant [34 x i8] c"../openssl/test/x509_acert_test.c\00", align 1
@.str.15 = private unnamed_addr constant [28 x i8] c"Error parsing test options\0A\00", align 1
@.str.16 = private unnamed_addr constant [52 x i8] c"Must specify at least 1 attribute certificate file\0A\00", align 1
@.str.17 = private unnamed_addr constant [17 x i8] c"test_print_acert\00", align 1
@.str.18 = private unnamed_addr constant [16 x i8] c"test_acert_sign\00", align 1
@.str.19 = private unnamed_addr constant [23 x i8] c"test_object_group_attr\00", align 1

; Function Attrs: nounwind uwtable
define dso_local i32 @setup_tests() #0 {
  %1 = alloca i32, align 4
  %2 = alloca i32, align 4
  %3 = alloca i32, align 4
  call void @llvm.lifetime.start.p0(i64 4, ptr %2) #3
  %4 = call i32 @test_skip_common_options()
  %5 = icmp ne i32 %4, 0
  br i1 %5, label %7, label %6

6:                                                ; preds = %0
  call void (ptr, i32, ptr, ...) @test_error(ptr noundef @.str.14, i32 noundef 159, ptr noundef @.str.15)
  store i32 0, ptr %1, align 4
  store i32 1, ptr %3, align 4
  br label %15

7:                                                ; preds = %0
  %8 = call i64 @test_get_argument_count()
  %9 = trunc i64 %8 to i32
  store i32 %9, ptr %2, align 4, !tbaa !4
  %10 = load i32, ptr %2, align 4, !tbaa !4
  %11 = icmp slt i32 %10, 1
  br i1 %11, label %12, label %13

12:                                               ; preds = %7
  call void (ptr, i32, ptr, ...) @test_error(ptr noundef @.str.14, i32 noundef 165, ptr noundef @.str.16)
  store i32 0, ptr %1, align 4
  store i32 1, ptr %3, align 4
  br label %15

13:                                               ; preds = %7
  %14 = load i32, ptr %2, align 4, !tbaa !4
  call void @add_all_tests(ptr noundef @.str.17, ptr noundef @test_print_acert, i32 noundef %14, i32 noundef 1)
  call void @add_test(ptr noundef @.str.18, ptr noundef @test_acert_sign)
  call void @add_all_tests(ptr noundef @.str.19, ptr noundef @test_object_group_attr, i32 noundef 4, i32 noundef 1)
  store i32 1, ptr %1, align 4
  store i32 1, ptr %3, align 4
  br label %15

15:                                               ; preds = %13, %12, %6
  call void @llvm.lifetime.end.p0(i64 4, ptr %2) #3
  %16 = load i32, ptr %1, align 4
  ret i32 %16
}