; Function Attrs: nounwind uwtable
define dso_local range(i32 0, 2) i32 @setup_tests() local_unnamed_addr #1 {
  %1 = tail call i32 @test_skip_common_options() #4
  %.not = icmp eq i32 %1, 0
  br i1 %.not, label %2, label %3

2:                                                ; preds = %0
  tail call void (ptr, i32, ptr, ...) @test_error(ptr noundef nonnull @.str.14, i32 noundef 159, ptr noundef nonnull @.str.15) #4
  br label %9

3:                                                ; preds = %0
  %4 = tail call i64 @test_get_argument_count() #4
  %5 = trunc i64 %4 to i32
  %6 = icmp slt i32 %5, 1
  br i1 %6, label %7, label %8

7:                                                ; preds = %3
  tail call void (ptr, i32, ptr, ...) @test_error(ptr noundef nonnull @.str.14, i32 noundef 165, ptr noundef nonnull @.str.16) #4
  br label %9

8:                                                ; preds = %3
  tail call void @add_all_tests(ptr noundef nonnull @.str.17, ptr noundef nonnull @test_print_acert, i32 noundef %5, i32 noundef 1) #4
  tail call void @add_test(ptr noundef nonnull @.str.18, ptr noundef nonnull @test_acert_sign) #4
  tail call void @add_all_tests(ptr noundef nonnull @.str.19, ptr noundef nonnull @test_object_group_attr, i32 noundef 4, i32 noundef 1) #4
  br label %9

9:                                                ; preds = %8, %7, %2
  %.0 = phi i32 [ 0, %7 ], [ 1, %8 ], [ 0, %2 ]
  ret i32 %.0
}